target datalayout = "e-m:e-p270:32:32-p271:32:32-p272:64:64-i64:64-i128:128-f80:128-n8:16:32:64-S128"
target triple = "x86_64-pc-linux-gnu"

%struct._Node = type { %union.anon.2 }
%union.anon.2 = type { %struct.BagNode }
%struct.BagNode = type { i32, i32, ptr, ptr, i32, %union.anon.4, i32, i32, i32, i32, i32 }
%union.anon.4 = type { %struct.anon.7 }
%struct.anon.7 = type { ptr, ptr }
%struct.anon.3 = type { i32, i32, ptr, ptr }
%struct.anon.5 = type { i32, i32, i32, i32 }
%struct.anon.6 = type { i32 }

; Function Attrs: nounwind uwtable
define internal ptr @node_new() #0 {
  %1 = alloca ptr, align 8
  %2 = alloca ptr, align 8
  %3 = alloca i32, align 4
  call void @llvm.lifetime.start.p0(i64 8, ptr %2) #8
  %4 = call noalias ptr @malloc(i64 noundef 72) #9
  store ptr %4, ptr %2, align 8, !tbaa !111
  %5 = load ptr, ptr %2, align 8, !tbaa !111
  %6 = icmp eq ptr %5, null
  br i1 %6, label %7, label %8

7:                                                ; preds = %0
  store ptr null, ptr %1, align 8
  store i32 1, ptr %3, align 4
  br label %11

8:                                                ; preds = %0
  %9 = load ptr, ptr %2, align 8, !tbaa !111
  call void @llvm.memset.p0.i64(ptr align 8 %9, i8 0, i64 72, i1 false)
  %10 = load ptr, ptr %2, align 8, !tbaa !111
  store ptr %10, ptr %1, align 8
  store i32 1, ptr %3, align 4
  br label %11

11:                                               ; preds = %8, %7
  call void @llvm.lifetime.end.p0(i64 8, ptr %2) #8
  %12 = load ptr, ptr %1, align 8
  ret ptr %12
}

; Function Attrs: nounwind uwtable
define internal ptr @node_new_bag(i32 noundef %0) #0 {
  %2 = alloca ptr, align 8
  %3 = alloca i32, align 4
  %4 = alloca ptr, align 8
  %5 = alloca i32, align 4
  store i32 %0, ptr %3, align 4, !tbaa !10
  call void @llvm.lifetime.start.p0(i64 8, ptr %4) #8
  %6 = call ptr @node_new()
  store ptr %6, ptr %4, align 8, !tbaa !111
  %7 = load ptr, ptr %4, align 8, !tbaa !111
  %8 = icmp eq ptr %7, null
  br i1 %8, label %9, label %10

9:                                                ; preds = %1
  store ptr null, ptr %2, align 8
  store i32 1, ptr %5, align 4
  br label %55

10:                                               ; preds = %1
  %11 = load ptr, ptr %4, align 8, !tbaa !111
  %12 = getelementptr inbounds nuw %struct._Node, ptr %11, i32 0, i32 0
  %13 = getelementptr inbounds nuw %struct.anon.3, ptr %12, i32 0, i32 0
  store i32 5, ptr %13, align 8, !tbaa !12
  %14 = load i32, ptr %3, align 4, !tbaa !10
  %15 = load ptr, ptr %4, align 8, !tbaa !111
  %16 = getelementptr inbounds nuw %struct._Node, ptr %15, i32 0, i32 0
  %17 = getelementptr inbounds nuw %struct.BagNode, ptr %16, i32 0, i32 4
  store i32 %14, ptr %17, align 8, !tbaa !12
  %18 = load i32, ptr %3, align 4, !tbaa !10
  switch i32 %18, label %50 [
    i32 0, label %19
    i32 1, label %36
    i32 2, label %50
    i32 3, label %41
  ]

19:                                               ; preds = %10
  %20 = load ptr, ptr %4, align 8, !tbaa !111
  %21 = getelementptr inbounds nuw %struct._Node, ptr %20, i32 0, i32 0
  %22 = getelementptr inbounds nuw %struct.BagNode, ptr %21, i32 0, i32 5
  %23 = getelementptr inbounds nuw %struct.anon.5, ptr %22, i32 0, i32 0
  store i32 0, ptr %23, align 8, !tbaa !12
  %24 = load ptr, ptr %4, align 8, !tbaa !111
  %25 = getelementptr inbounds nuw %struct._Node, ptr %24, i32 0, i32 0
  %26 = getelementptr inbounds nuw %struct.BagNode, ptr %25, i32 0, i32 5
  %27 = getelementptr inbounds nuw %struct.anon.5, ptr %26, i32 0, i32 1
  store i32 -1, ptr %27, align 4, !tbaa !12
  %28 = load ptr, ptr %4, align 8, !tbaa !111
  %29 = getelementptr inbounds nuw %struct._Node, ptr %28, i32 0, i32 0
  %30 = getelementptr inbounds nuw %struct.BagNode, ptr %29, i32 0, i32 5
  %31 = getelementptr inbounds nuw %struct.anon.5, ptr %30, i32 0, i32 2
  store i32 1, ptr %31, align 8, !tbaa !12
  %32 = load ptr, ptr %4, align 8, !tbaa !111
  %33 = getelementptr inbounds nuw %struct._Node, ptr %32, i32 0, i32 0
  %34 = getelementptr inbounds nuw %struct.BagNode, ptr %33, i32 0, i32 5
  %35 = getelementptr inbounds nuw %struct.anon.5, ptr %34, i32 0, i32 3
  store i32 0, ptr %35, align 4, !tbaa !12
  br label %50

36:                                               ; preds = %10
  %37 = load ptr, ptr %4, align 8, !tbaa !111
  %38 = getelementptr inbounds nuw %struct._Node, ptr %37, i32 0, i32 0
  %39 = getelementptr inbounds nuw %struct.BagNode, ptr %38, i32 0, i32 5
  %40 = getelementptr inbounds nuw %struct.anon.6, ptr %39, i32 0, i32 0
  store i32 0, ptr %40, align 8, !tbaa !12
  br label %50

41:                                               ; preds = %10
  %42 = load ptr, ptr %4, align 8, !tbaa !111
  %43 = getelementptr inbounds nuw %struct._Node, ptr %42, i32 0, i32 0
  %44 = getelementptr inbounds nuw %struct.BagNode, ptr %43, i32 0, i32 5
  %45 = getelementptr inbounds nuw %struct.anon.7, ptr %44, i32 0, i32 0
  store ptr null, ptr %45, align 8, !tbaa !12
  %46 = load ptr, ptr %4, align 8, !tbaa !111
  %47 = getelementptr inbounds nuw %struct._Node, ptr %46, i32 0, i32 0
  %48 = getelementptr inbounds nuw %struct.BagNode, ptr %47, i32 0, i32 5
  %49 = getelementptr inbounds nuw %struct.anon.7, ptr %48, i32 0, i32 1
  store ptr null, ptr %49, align 8, !tbaa !12
  br label %50

50:                                               ; preds = %10, %41, %10, %36, %19
  %51 = load ptr, ptr %4, align 8, !tbaa !111
  %52 = getelementptr inbounds nuw %struct._Node, ptr %51, i32 0, i32 0
  %53 = getelementptr inbounds nuw %struct.BagNode, ptr %52, i32 0, i32 10
  store i32 0, ptr %53, align 8, !tbaa !12
  %54 = load ptr, ptr %4, align 8, !tbaa !111
  store ptr %54, ptr %2, align 8
  store i32 1, ptr %5, align 4
  br label %55

55:                                               ; preds = %50, %9
  call void @llvm.lifetime.end.p0(i64 8, ptr %4) #8
  %56 = load ptr, ptr %2, align 8
  ret ptr %56
}

; Function Attrs: nounwind uwtable
define dso_local ptr @onig_node_new_bag(i32 noundef %0) #0 {
  %2 = alloca i32, align 4
  store i32 %0, ptr %2, align 4, !tbaa !10
  %3 = load i32, ptr %2, align 4, !tbaa !10
  %4 = call ptr @node_new_bag(i32 noundef %3)
  ret ptr %4
}