; Function Attrs: mustprogress nofree nounwind willreturn memory(write, argmem: none, inaccessiblemem: readwrite) uwtable
define dso_local noalias noundef ptr @onig_node_new_bag(i32 noundef %0) local_unnamed_addr #16 {
  %calloc.i.i = tail call noalias noundef dereferenceable_or_null(72) ptr @calloc(i64 1, i64 72)
  %2 = icmp eq ptr %calloc.i.i, null
  br i1 %2, label %node_new_bag.exit, label %3

3:                                                ; preds = %1
  store i32 5, ptr %calloc.i.i, align 8, !tbaa !10
  %4 = getelementptr inbounds nuw i8, ptr %calloc.i.i, i64 24
  store i32 %0, ptr %4, align 8, !tbaa !10
  %cond = icmp eq i32 %0, 0
  br i1 %cond, label %5, label %8

5:                                                ; preds = %3
  %6 = getelementptr inbounds nuw i8, ptr %calloc.i.i, i64 36
  store i32 -1, ptr %6, align 4, !tbaa !10
  %7 = getelementptr inbounds nuw i8, ptr %calloc.i.i, i64 40
  store i32 1, ptr %7, align 8, !tbaa !10
  br label %8

8:                                                ; preds = %3, %5
  %9 = getelementptr inbounds nuw i8, ptr %calloc.i.i, i64 64
  store i32 0, ptr %9, align 8, !tbaa !10
  br label %node_new_bag.exit

node_new_bag.exit:                                ; preds = %1, %8
  ret ptr %calloc.i.i
}